target datalayout = "e-m:e-p270:32:32-p271:32:32-p272:64:64-i64:64-i128:128-f80:128-n8:16:32:64-S128"
target triple = "x86_64-pc-linux-gnu"

%"class.duckdb_re2::Regexp" = type { i8, i8, i16, i16, i16, %union.anon, ptr, %union.anon.0 }
%union.anon = type { ptr }
%union.anon.0 = type { %struct.anon.1 }
%struct.anon.1 = type { i32, ptr }

; Function Attrs: mustprogress nounwind uwtable
define hidden void @_ZN10duckdb_re26RegexpC2ENS_8RegexpOpENS0_10ParseFlagsE(ptr noundef nonnull align 8 dereferenceable(40) %0, i32 noundef %1, i32 noundef %2) unnamed_addr #0 align 2 {
  %4 = alloca ptr, align 8
  %5 = alloca i32, align 4
  %6 = alloca i32, align 4
  store ptr %0, ptr %4, align 8, !tbaa !3
  store i32 %1, ptr %5, align 4, !tbaa !8
  store i32 %2, ptr %6, align 4, !tbaa !10
  %7 = load ptr, ptr %4, align 8
  %8 = getelementptr inbounds nuw %"class.duckdb_re2::Regexp", ptr %7, i32 0, i32 0
  %9 = load i32, ptr %5, align 4, !tbaa !8
  %10 = trunc i32 %9 to i8
  store i8 %10, ptr %8, align 8, !tbaa !12
  %11 = getelementptr inbounds nuw %"class.duckdb_re2::Regexp", ptr %7, i32 0, i32 1
  store i8 0, ptr %11, align 1, !tbaa !15
  %12 = getelementptr inbounds nuw %"class.duckdb_re2::Regexp", ptr %7, i32 0, i32 2
  %13 = load i32, ptr %6, align 4, !tbaa !10
  %14 = trunc i32 %13 to i16
  store i16 %14, ptr %12, align 2, !tbaa !16
  %15 = getelementptr inbounds nuw %"class.duckdb_re2::Regexp", ptr %7, i32 0, i32 3
  store i16 1, ptr %15, align 4, !tbaa !17
  %16 = getelementptr inbounds nuw %"class.duckdb_re2::Regexp", ptr %7, i32 0, i32 4
  store i16 0, ptr %16, align 2, !tbaa !18
  %17 = getelementptr inbounds nuw %"class.duckdb_re2::Regexp", ptr %7, i32 0, i32 6
  store ptr null, ptr %17, align 8, !tbaa !19
  %18 = getelementptr inbounds nuw %"class.duckdb_re2::Regexp", ptr %7, i32 0, i32 5
  store ptr null, ptr %18, align 8, !tbaa !20
  %19 = getelementptr inbounds nuw %"class.duckdb_re2::Regexp", ptr %7, i32 0, i32 7
  %20 = getelementptr inbounds [2 x ptr], ptr %19, i64 0, i64 0
  call void @llvm.memset.p0.i64(ptr align 8 %20, i8 0, i64 16, i1 false)
  ret void
}