; Function Attrs: mustprogress nofree norecurse nosync nounwind willreturn memory(argmem: write) uwtable
define hidden void @_ZN10duckdb_re26RegexpC2ENS_8RegexpOpENS0_10ParseFlagsE(ptr noundef nonnull writeonly align 8 captures(none) dereferenceable(40) initializes((0, 40)) %0, i32 noundef %1, i32 noundef %2) unnamed_addr #0 align 2 {
  %4 = trunc i32 %1 to i8
  store i8 %4, ptr %0, align 8, !tbaa !3
  %5 = getelementptr inbounds nuw i8, ptr %0, i64 1
  store i8 0, ptr %5, align 1, !tbaa !10
  %6 = getelementptr inbounds nuw i8, ptr %0, i64 2
  %7 = trunc i32 %2 to i16
  store i16 %7, ptr %6, align 2, !tbaa !11
  %8 = getelementptr inbounds nuw i8, ptr %0, i64 4
  store i16 1, ptr %8, align 4, !tbaa !12
  %9 = getelementptr inbounds nuw i8, ptr %0, i64 6
  tail call void @llvm.memset.p0.i64(ptr noundef nonnull align 2 dereferenceable(34) %9, i8 0, i64 34, i1 false)
  ret void
}